; Function Attrs: null_pointer_is_valid sspstrong uwtable
define hidden i32 @winreg_dissect_struct_KeySecurityData(ptr noundef %0, i32 noundef %1, ptr noundef %2, ptr noundef %3, ptr noundef %4, ptr noundef %5, i32 noundef %6, i32 %7) local_unnamed_addr #0 {
  %9 = getelementptr inbounds nuw i8, ptr %4, i64 64
  %10 = load ptr, ptr %9, align 8
  %11 = getelementptr inbounds nuw i8, ptr %10, i64 96
  %12 = load i32, ptr %11, align 8
  %13 = and i32 %12, 1
  %.not = icmp eq i32 %13, 0
  %14 = getelementptr inbounds nuw i8, ptr %4, i64 25
  %15 = load i8, ptr %14, align 1, !range !6, !noundef !7
  %16 = trunc nuw i8 %15 to i1
  br i1 %.not, label %22, label %17

17:                                               ; preds = %8
  %18 = and i32 %1, 7
  %.not47 = icmp eq i32 %18, 0
  %or.cond = or i1 %.not47, %16
  br i1 %or.cond, label %27, label %19

19:                                               ; preds = %17
  %20 = and i32 %1, -8
  %21 = add i32 %20, 8
  br label %27

22:                                               ; preds = %8
  %23 = and i32 %1, 3
  %.not46 = icmp eq i32 %23, 0
  %or.cond51 = or i1 %.not46, %16
  br i1 %or.cond51, label %27, label %24

24:                                               ; preds = %22
  %25 = and i32 %1, -4
  %26 = add i32 %25, 4
  br label %27

27:                                               ; preds = %22, %24, %17, %19
  %.0 = phi i32 [ %1, %17 ], [ %21, %19 ], [ %1, %22 ], [ %26, %24 ]
  %.not48 = icmp eq ptr %3, null
  br i1 %.not48, label %32, label %28

28:                                               ; preds = %27
  %29 = tail call ptr @proto_tree_add_item(ptr noundef nonnull %3, i32 noundef %6, ptr noundef %0, i32 noundef %.0, i32 noundef -1, i32 noundef 0)
  %30 = load i32, ptr @ett_winreg_KeySecurityData, align 4
  %31 = tail call ptr @proto_item_add_subtree(ptr noundef %29, i32 noundef %30)
  br label %32

32:                                               ; preds = %28, %27
  %.044 = phi ptr [ %29, %28 ], [ null, %27 ]
  %.043 = phi ptr [ %31, %28 ], [ null, %27 ]
  %33 = load i32, ptr @hf_winreg_KeySecurityData_data, align 4
  %34 = tail call i32 @dissect_ndr_embedded_pointer(ptr noundef %0, i32 noundef %.0, ptr noundef %2, ptr noundef %.043, ptr noundef %4, ptr noundef %5, ptr noundef nonnull @winreg_dissect_element_KeySecurityData_data_, i32 noundef 2, ptr noundef nonnull @.str.254, i32 noundef %33)
  %35 = load i32, ptr @hf_winreg_KeySecurityData_size, align 4
  %36 = tail call i32 @PIDL_dissect_uint32(ptr noundef %0, i32 noundef %34, ptr noundef %2, ptr noundef %.043, ptr noundef %4, ptr noundef %5, i32 noundef %35, i32 noundef 0)
  %37 = load i32, ptr @hf_winreg_KeySecurityData_len, align 4
  %38 = tail call i32 @PIDL_dissect_uint32(ptr noundef %0, i32 noundef %36, ptr noundef %2, ptr noundef %.043, ptr noundef %4, ptr noundef %5, i32 noundef %37, i32 noundef 0)
  %39 = sub i32 %38, %.0
  tail call void @proto_item_set_len(ptr noundef %.044, i32 noundef %39)
  %40 = load ptr, ptr %9, align 8
  %41 = getelementptr inbounds nuw i8, ptr %40, i64 96
  %42 = load i32, ptr %41, align 8
  %43 = and i32 %42, 1
  %.not49 = icmp eq i32 %43, 0
  br i1 %.not49, label %52, label %44

44:                                               ; preds = %32
  %45 = getelementptr inbounds nuw i8, ptr %4, i64 25
  %46 = load i8, ptr %45, align 1, !range !6, !noundef !7
  %47 = trunc nuw i8 %46 to i1
  %48 = and i32 %38, 7
  %.not50 = icmp eq i32 %48, 0
  %or.cond52 = or i1 %.not50, %47
  br i1 %or.cond52, label %52, label %49

49:                                               ; preds = %44
  %50 = and i32 %38, -8
  %51 = add i32 %50, 8
  br label %52

52:                                               ; preds = %49, %44, %32
  %.1 = phi i32 [ %38, %44 ], [ %51, %49 ], [ %38, %32 ]
  ret i32 %.1
}